; Function Attrs: mustprogress uwtable
define noundef zeroext i1 @_ZN5draco30AttributeQuantizationTransform16DecodeParametersERKNS_14PointAttributeEPNS_13DecoderBufferE(ptr noundef nonnull align 8 dereferenceable(44) %0, ptr nocapture noundef nonnull readonly align 8 dereferenceable(112) %1, ptr nocapture noundef %2) unnamed_addr #3 align 2 personality ptr @__gxx_personality_v0 {
  %4 = getelementptr inbounds i8, ptr %0, i64 16
  %5 = getelementptr inbounds i8, ptr %1, i64 24
  %6 = load i8, ptr %5, align 8
  %7 = zext i8 %6 to i64
  %8 = getelementptr inbounds i8, ptr %0, i64 24
  %9 = load ptr, ptr %8, align 8
  %10 = load ptr, ptr %4, align 8
  %11 = ptrtoint ptr %9 to i64
  %12 = ptrtoint ptr %10 to i64
  %13 = sub i64 %11, %12
  %14 = ashr exact i64 %13, 2
  %15 = icmp ult i64 %14, %7
  br i1 %15, label %16, label %18

16:                                               ; preds = %3
  %17 = sub nsw i64 %7, %14
  tail call void @_ZNSt6vectorIfSaIfEE17_M_default_appendEm(ptr noundef nonnull align 8 dereferenceable(24) %4, i64 noundef %17)
  %.pre = load ptr, ptr %4, align 8
  %.pre12 = load ptr, ptr %8, align 8
  %.pre13 = ptrtoint ptr %.pre to i64
  br label %_ZNSt6vectorIfSaIfEE6resizeEm.exit

18:                                               ; preds = %3
  %19 = icmp ugt i64 %14, %7
  br i1 %19, label %20, label %_ZNSt6vectorIfSaIfEE6resizeEm.exit

20:                                               ; preds = %18
  %21 = getelementptr inbounds float, ptr %10, i64 %7
  %.not.i.i = icmp eq ptr %9, %21
  br i1 %.not.i.i, label %_ZNSt6vectorIfSaIfEE6resizeEm.exit, label %22

22:                                               ; preds = %20
  store ptr %21, ptr %8, align 8
  br label %_ZNSt6vectorIfSaIfEE6resizeEm.exit

_ZNSt6vectorIfSaIfEE6resizeEm.exit:               ; preds = %16, %18, %20, %22
  %.pre-phi = phi i64 [ %.pre13, %16 ], [ %12, %18 ], [ %12, %20 ], [ %12, %22 ]
  %23 = phi ptr [ %.pre12, %16 ], [ %9, %18 ], [ %9, %20 ], [ %21, %22 ]
  %24 = phi ptr [ %.pre, %16 ], [ %10, %18 ], [ %10, %20 ], [ %10, %22 ]
  %25 = ptrtoint ptr %23 to i64
  %26 = sub i64 %25, %.pre-phi
  %27 = getelementptr inbounds i8, ptr %2, i64 8
  %28 = load i64, ptr %27, align 8
  %29 = getelementptr inbounds i8, ptr %2, i64 16
  %30 = load i64, ptr %29, align 8
  %31 = add i64 %30, %26
  %.not = icmp slt i64 %28, %31
  br i1 %.not, label %_ZN5draco13DecoderBuffer6DecodeEPvm.exit, label %32

32:                                               ; preds = %_ZNSt6vectorIfSaIfEE6resizeEm.exit
  %33 = load ptr, ptr %2, align 8
  %34 = getelementptr inbounds i8, ptr %33, i64 %30
  tail call void @llvm.memcpy.p0.p0.i64(ptr align 1 %24, ptr align 1 %34, i64 %26, i1 false)
  %35 = load i64, ptr %29, align 8
  %36 = add i64 %35, %26
  store i64 %36, ptr %29, align 8
  %37 = load i64, ptr %27, align 8
  %38 = add i64 %36, 4
  %.not10 = icmp slt i64 %37, %38
  br i1 %.not10, label %_ZN5draco13DecoderBuffer6DecodeEPvm.exit, label %39

39:                                               ; preds = %32
  %40 = getelementptr inbounds i8, ptr %0, i64 40
  %41 = load ptr, ptr %2, align 8
  %42 = getelementptr inbounds i8, ptr %41, i64 %36
  %43 = load i32, ptr %42, align 1
  store i32 %43, ptr %40, align 8
  %44 = load i64, ptr %29, align 8
  %45 = add i64 %44, 4
  store i64 %45, ptr %29, align 8
  %46 = load i64, ptr %27, align 8
  %47 = add i64 %44, 5
  %.not11 = icmp slt i64 %46, %47
  br i1 %.not11, label %_ZN5draco13DecoderBuffer6DecodeEPvm.exit, label %48

48:                                               ; preds = %39
  %49 = load ptr, ptr %2, align 8
  %50 = getelementptr inbounds i8, ptr %49, i64 %45
  %51 = load i8, ptr %50, align 1
  store i64 %47, ptr %29, align 8
  %52 = zext i8 %51 to i32
  %53 = add nsw i32 %52, -1
  %54 = icmp ult i32 %53, 30
  br i1 %54, label %55, label %_ZN5draco13DecoderBuffer6DecodeEPvm.exit

55:                                               ; preds = %48
  %56 = getelementptr inbounds i8, ptr %0, i64 8
  store i32 %52, ptr %56, align 8
  br label %_ZN5draco13DecoderBuffer6DecodeEPvm.exit

_ZN5draco13DecoderBuffer6DecodeEPvm.exit:         ; preds = %39, %32, %_ZNSt6vectorIfSaIfEE6resizeEm.exit, %48, %55
  %.0 = phi i1 [ true, %55 ], [ false, %48 ], [ false, %_ZNSt6vectorIfSaIfEE6resizeEm.exit ], [ false, %32 ], [ false, %39 ]
  ret i1 %.0
}